; Function Attrs: nounwind uwtable
define dso_local i64 @GetRedoRecPtr() local_unnamed_addr #0 {
  %1 = load ptr, ptr @XLogCtl, align 8
  %2 = getelementptr inbounds nuw i8, ptr %1, i64 448
  %3 = tail call i8 asm sideeffect "\09lock\09\09\09\0A\09xchgb\09$0,$1\09\0A", "=q,=*m,0,*m,~{memory},~{cc},~{dirflag},~{fpsr},~{flags}"(ptr nonnull elementtype(i8) %2, i8 1, ptr nonnull elementtype(i8) %2) #26, !srcloc !10
  %.not = icmp eq i8 %3, 0
  br i1 %.not, label %8, label %4

4:                                                ; preds = %0
  %5 = load ptr, ptr @XLogCtl, align 8
  %6 = getelementptr inbounds nuw i8, ptr %5, i64 448
  %7 = tail call i32 @s_lock(ptr noundef nonnull %6, ptr noundef nonnull @.str.14, i32 noundef 6468, ptr noundef nonnull @__func__.GetRedoRecPtr) #26
  br label %8

8:                                                ; preds = %0, %4
  %9 = load ptr, ptr @XLogCtl, align 8
  %10 = getelementptr inbounds nuw i8, ptr %9, i64 200
  %11 = load i64, ptr %10, align 8
  tail call void asm sideeffect "", "~{memory},~{dirflag},~{fpsr},~{flags}"() #26, !srcloc !38
  %12 = load ptr, ptr @XLogCtl, align 8
  %13 = getelementptr inbounds nuw i8, ptr %12, i64 448
  store i8 0, ptr %13, align 8
  %14 = load i64, ptr @RedoRecPtr, align 8
  %15 = icmp ult i64 %14, %11
  br i1 %15, label %16, label %17

16:                                               ; preds = %8
  store i64 %11, ptr @RedoRecPtr, align 8
  br label %17

17:                                               ; preds = %16, %8
  %18 = phi i64 [ %11, %16 ], [ %14, %8 ]
  ret i64 %18
}